; ModuleID = 'source-C-CXX/44/2881.c'
source_filename = "source-C-CXX/44/2881.c"
target datalayout = "e-m:e-p270:32:32-p271:32:32-p272:64:64-i64:64-f80:128-n8:16:32:64-S128"
target triple = "x86_64-pc-linux-gnu"

@.str = private unnamed_addr constant [3 x i8] c"%s\00", align 1
@.str.1 = private unnamed_addr constant [3 x i8] c"%d\00", align 1

; Function Attrs: nofree nounwind sspstrong uwtable
define dso_local i32 @main() local_unnamed_addr #0 {
  %1 = alloca [51 x i8], align 16
  %2 = alloca [51 x i8], align 16
  %3 = getelementptr inbounds [51 x i8], [51 x i8]* %1, i64 0, i64 0
  call void @llvm.lifetime.start.p0i8(i64 51, i8* nonnull %3) #4
  %4 = getelementptr inbounds [51 x i8], [51 x i8]* %2, i64 0, i64 0
  call void @llvm.lifetime.start.p0i8(i64 51, i8* nonnull %4) #4
  %5 = call i32 (i8*, ...) @__isoc99_scanf(i8* getelementptr inbounds ([3 x i8], [3 x i8]* @.str, i64 0, i64 0), i8* nonnull %3)
  %6 = call i32 (i8*, ...) @__isoc99_scanf(i8* getelementptr inbounds ([3 x i8], [3 x i8]* @.str, i64 0, i64 0), i8* nonnull %4)
  %7 = load i8, i8* %4, align 16, !tbaa !5
  %8 = icmp eq i8 %7, 0
  br i1 %8, label %33, label %9

9:                                                ; preds = %0, %28
  %10 = phi i64 [ %29, %28 ], [ 0, %0 ]
  %11 = phi i8 [ %31, %28 ], [ %7, %0 ]
  store i8 %11, i8* %3, align 16, !tbaa !5
  %12 = call i64 @strlen(i8* noundef nonnull %3) #5
  %13 = add i64 %12, -1
  br label %21

14:                                               ; preds = %21
  %15 = getelementptr inbounds [51 x i8], [51 x i8]* %1, i64 0, i64 %24
  %16 = load i8, i8* %15, align 1, !tbaa !5
  %17 = add nuw nsw i64 %24, %10
  %18 = getelementptr inbounds [51 x i8], [51 x i8]* %2, i64 0, i64 %17
  %19 = load i8, i8* %18, align 1, !tbaa !5
  %20 = icmp eq i8 %16, %19
  br i1 %20, label %21, label %28, !llvm.loop !8

21:                                               ; preds = %9, %14
  %22 = phi i64 [ 0, %9 ], [ %24, %14 ]
  %23 = icmp eq i64 %13, %22
  %24 = add nuw i64 %22, 1
  br i1 %23, label %25, label %14

25:                                               ; preds = %21
  %26 = trunc i64 %10 to i32
  %27 = call i32 (i8*, ...) @printf(i8* nonnull dereferenceable(1) getelementptr inbounds ([3 x i8], [3 x i8]* @.str.1, i64 0, i64 0), i32 %26)
  br label %33

28:                                               ; preds = %14
  %29 = add nuw i64 %10, 1
  %30 = getelementptr inbounds [51 x i8], [51 x i8]* %2, i64 0, i64 %29
  %31 = load i8, i8* %30, align 1, !tbaa !5
  %32 = icmp eq i8 %31, 0
  br i1 %32, label %33, label %9, !llvm.loop !10

33:                                               ; preds = %28, %0, %25
  call void @llvm.lifetime.end.p0i8(i64 51, i8* nonnull %4) #4
  call void @llvm.lifetime.end.p0i8(i64 51, i8* nonnull %3) #4
  ret i32 0
}

; Function Attrs: argmemonly mustprogress nofree nosync nounwind willreturn
declare void @llvm.lifetime.start.p0i8(i64 immarg, i8* nocapture) #1

; Function Attrs: nofree nounwind
declare noundef i32 @__isoc99_scanf(i8* nocapture noundef readonly, ...) local_unnamed_addr #2

; Function Attrs: argmemonly mustprogress nofree nounwind readonly willreturn
declare i64 @strlen(i8* nocapture) local_unnamed_addr #3

; Function Attrs: nofree nounwind
declare noundef i32 @printf(i8* nocapture noundef readonly, ...) local_unnamed_addr #2

; Function Attrs: argmemonly mustprogress nofree nosync nounwind willreturn
declare void @llvm.lifetime.end.p0i8(i64 immarg, i8* nocapture) #1


!llvm.module.flags = !{!0, !1, !2, !3}
!llvm.ident = !{!4}

!0 = !{i32 1, !"wchar_size", i32 4}
!1 = !{i32 7, !"PIC Level", i32 2}
!2 = !{i32 7, !"PIE Level", i32 2}
!3 = !{i32 7, !"uwtable", i32 1}
!4 = !{!"clang version 13.0.0"}
!5 = !{!6, !6, i64 0}
!6 = !{!"omnipotent char", !7, i64 0}
!7 = !{!"Simple C/C++ TBAA"}
!8 = distinct !{!8, !9}
!9 = !{!"llvm.loop.mustprogress"}
!10 = distinct !{!10, !9}
